target datalayout = "e-m:e-p270:32:32-p271:32:32-p272:64:64-i64:64-i128:128-f80:128-n8:16:32:64-S128"
target triple = "x86_64-pc-linux-gnu"

%struct._typeobject = type opaque
%struct.xx_state = type { ptr, ptr }

@.str.7 = private unnamed_addr constant [16 x i8] c"xxlimited.Error\00", align 1
@PyUnicode_Type = external global %struct._typeobject, align 1
@Xxo_Type_spec = internal global { ptr, i32, i32, i32, [4 x i8], ptr } { ptr @.str.8, i32 48, i32 0, i32 16384, [4 x i8] zeroinitializer, ptr @Xxo_Type_slots }, align 8
@Str_Type_spec = internal global { ptr, i32, i32, i32, [4 x i8], ptr } { ptr @.str.18, i32 0, i32 0, i32 1024, [4 x i8] zeroinitializer, ptr @Str_Type_slots }, align 8

; Function Attrs: inlinehint nounwind uwtable
define internal void @Py_DECREF(ptr noundef %0) #4 {
  %2 = alloca ptr, align 8
  store ptr %0, ptr %2, align 8, !tbaa !3
  %3 = load ptr, ptr %2, align 8, !tbaa !3
  call void @_Py_DecRef(ptr noundef %3)
  ret void
}

; Function Attrs: nounwind uwtable
define internal i32 @xx_modexec(ptr noundef %0) #0 {
  %2 = alloca i32, align 4
  %3 = alloca ptr, align 8
  %4 = alloca ptr, align 8
  %5 = alloca i32, align 4
  %6 = alloca ptr, align 8
  store ptr %0, ptr %3, align 8, !tbaa !3
  call void @llvm.lifetime.start.p0(i64 8, ptr %4) #6
  %7 = load ptr, ptr %3, align 8, !tbaa !3
  %8 = call ptr @PyModule_GetState(ptr noundef %7)
  store ptr %8, ptr %4, align 8, !tbaa !8
  %9 = call ptr @PyErr_NewException(ptr noundef @.str.7, ptr noundef null, ptr noundef null)
  %10 = load ptr, ptr %4, align 8, !tbaa !8
  %11 = getelementptr inbounds nuw %struct.xx_state, ptr %10, i32 0, i32 1
  store ptr %9, ptr %11, align 8, !tbaa !13
  %12 = load ptr, ptr %4, align 8, !tbaa !8
  %13 = getelementptr inbounds nuw %struct.xx_state, ptr %12, i32 0, i32 1
  %14 = load ptr, ptr %13, align 8, !tbaa !13
  %15 = icmp eq ptr %14, null
  br i1 %15, label %16, label %17

16:                                               ; preds = %1
  store i32 -1, ptr %2, align 4
  store i32 1, ptr %5, align 4
  br label %58

17:                                               ; preds = %1
  %18 = load ptr, ptr %3, align 8, !tbaa !3
  %19 = load ptr, ptr %4, align 8, !tbaa !8
  %20 = getelementptr inbounds nuw %struct.xx_state, ptr %19, i32 0, i32 1
  %21 = load ptr, ptr %20, align 8, !tbaa !13
  %22 = call i32 @PyModule_AddType(ptr noundef %18, ptr noundef %21)
  %23 = icmp slt i32 %22, 0
  br i1 %23, label %24, label %25

24:                                               ; preds = %17
  store i32 -1, ptr %2, align 4
  store i32 1, ptr %5, align 4
  br label %58

25:                                               ; preds = %17
  %26 = load ptr, ptr %3, align 8, !tbaa !3
  %27 = call ptr @PyType_FromModuleAndSpec(ptr noundef %26, ptr noundef @Xxo_Type_spec, ptr noundef null)
  %28 = load ptr, ptr %4, align 8, !tbaa !8
  %29 = getelementptr inbounds nuw %struct.xx_state, ptr %28, i32 0, i32 0
  store ptr %27, ptr %29, align 8, !tbaa !9
  %30 = load ptr, ptr %4, align 8, !tbaa !8
  %31 = getelementptr inbounds nuw %struct.xx_state, ptr %30, i32 0, i32 0
  %32 = load ptr, ptr %31, align 8, !tbaa !9
  %33 = icmp eq ptr %32, null
  br i1 %33, label %34, label %35

34:                                               ; preds = %25
  store i32 -1, ptr %2, align 4
  store i32 1, ptr %5, align 4
  br label %58

35:                                               ; preds = %25
  %36 = load ptr, ptr %3, align 8, !tbaa !3
  %37 = load ptr, ptr %4, align 8, !tbaa !8
  %38 = getelementptr inbounds nuw %struct.xx_state, ptr %37, i32 0, i32 0
  %39 = load ptr, ptr %38, align 8, !tbaa !9
  %40 = call i32 @PyModule_AddType(ptr noundef %36, ptr noundef %39)
  %41 = icmp slt i32 %40, 0
  br i1 %41, label %42, label %43

42:                                               ; preds = %35
  store i32 -1, ptr %2, align 4
  store i32 1, ptr %5, align 4
  br label %58

43:                                               ; preds = %35
  call void @llvm.lifetime.start.p0(i64 8, ptr %6) #6
  %44 = load ptr, ptr %3, align 8, !tbaa !3
  %45 = call ptr @PyType_FromModuleAndSpec(ptr noundef %44, ptr noundef @Str_Type_spec, ptr noundef @PyUnicode_Type)
  store ptr %45, ptr %6, align 8, !tbaa !3
  %46 = load ptr, ptr %6, align 8, !tbaa !3
  %47 = icmp eq ptr %46, null
  br i1 %47, label %48, label %49

48:                                               ; preds = %43
  store i32 -1, ptr %2, align 4
  store i32 1, ptr %5, align 4
  br label %57

49:                                               ; preds = %43
  %50 = load ptr, ptr %3, align 8, !tbaa !3
  %51 = load ptr, ptr %6, align 8, !tbaa !3
  %52 = call i32 @PyModule_AddType(ptr noundef %50, ptr noundef %51)
  %53 = icmp slt i32 %52, 0
  br i1 %53, label %54, label %55

54:                                               ; preds = %49
  store i32 -1, ptr %2, align 4
  store i32 1, ptr %5, align 4
  br label %57

55:                                               ; preds = %49
  %56 = load ptr, ptr %6, align 8, !tbaa !3
  call void @Py_DECREF(ptr noundef %56)
  store i32 0, ptr %2, align 4
  store i32 1, ptr %5, align 4
  br label %57

57:                                               ; preds = %55, %54, %48
  call void @llvm.lifetime.end.p0(i64 8, ptr %6) #6
  br label %58

58:                                               ; preds = %57, %42, %34, %24, %16
  call void @llvm.lifetime.end.p0(i64 8, ptr %4) #6
  %59 = load i32, ptr %2, align 4
  ret i32 %59
}