; Function Attrs: nounwind uwtable
define internal range(i32 -1, 1) i32 @xx_modexec(ptr noundef %0) #0 {
  %2 = tail call ptr @PyModule_GetState(ptr noundef %0) #5
  %3 = tail call ptr @PyErr_NewException(ptr noundef nonnull @.str.7, ptr noundef null, ptr noundef null) #5
  %4 = getelementptr inbounds nuw i8, ptr %2, i64 8
  store ptr %3, ptr %4, align 8, !tbaa !9
  %5 = icmp eq ptr %3, null
  br i1 %5, label %22, label %6

6:                                                ; preds = %1
  %7 = tail call i32 @PyModule_AddType(ptr noundef %0, ptr noundef nonnull %3) #5
  %8 = icmp slt i32 %7, 0
  br i1 %8, label %22, label %9

9:                                                ; preds = %6
  %10 = tail call ptr @PyType_FromModuleAndSpec(ptr noundef %0, ptr noundef nonnull @Xxo_Type_spec, ptr noundef null) #5
  store ptr %10, ptr %2, align 8, !tbaa !3
  %11 = icmp eq ptr %10, null
  br i1 %11, label %22, label %12

12:                                               ; preds = %9
  %13 = tail call i32 @PyModule_AddType(ptr noundef %0, ptr noundef nonnull %10) #5
  %14 = icmp slt i32 %13, 0
  br i1 %14, label %22, label %15

15:                                               ; preds = %12
  %16 = tail call ptr @PyType_FromModuleAndSpec(ptr noundef %0, ptr noundef nonnull @Str_Type_spec, ptr noundef nonnull @PyUnicode_Type) #5
  %17 = icmp eq ptr %16, null
  br i1 %17, label %22, label %18

18:                                               ; preds = %15
  %19 = tail call i32 @PyModule_AddType(ptr noundef %0, ptr noundef nonnull %16) #5
  %20 = icmp slt i32 %19, 0
  br i1 %20, label %22, label %21

21:                                               ; preds = %18
  tail call void @_Py_DecRef(ptr noundef nonnull %16) #5
  br label %22

22:                                               ; preds = %21, %15, %18, %12, %9, %6, %1
  %.0 = phi i32 [ -1, %1 ], [ -1, %6 ], [ -1, %9 ], [ -1, %12 ], [ 0, %21 ], [ -1, %15 ], [ -1, %18 ]
  ret i32 %.0
}